target datalayout = "e-m:e-p270:32:32-p271:32:32-p272:64:64-i64:64-i128:128-f80:128-n8:16:32:64-S128"
target triple = "x86_64-pc-linux-gnu"

%"class.vcg::Matrix44" = type { %"struct.std::array.103" }
%"struct.std::array.103" = type { [16 x float] }
%class.CMeshO = type { %"class.vcg::tri::TriMesh.base", i32, i32, i32, i32, %"class.vcg::Matrix44", [4 x i8] }
%"class.vcg::tri::TriMesh.base" = type <{ ptr, %"class.vcg::vertex::vector_ocf", i32, [4 x i8], %"class.std::vector.49", i32, [4 x i8], %"class.vcg::face::vector_ocf", i32, [4 x i8], %"class.std::vector.84", i32, [4 x i8], %"class.std::vector.89", i32, %"class.vcg::Box3", [4 x i8], %"class.std::vector.94", %"class.std::vector.94", i32, [4 x i8], %"class.std::set", %"class.std::set", %"class.std::set", %"class.std::set", %"class.std::set", %"class.vcg::Shot", %"class.vcg::Color4", i32 }>
%"class.vcg::vertex::vector_ocf" = type <{ %"class.std::vector", %"class.std::vector.9", %"class.std::vector.14", %"class.std::vector.19", %"class.std::vector.24", %"class.std::vector.29", %"class.std::vector.34", %"class.std::vector.34", %"class.std::vector.39", %"class.std::vector.44", i8, i8, i8, i8, i8, i8, i8, i8, i8, [7 x i8] }>
%"class.std::vector" = type { %"struct.std::_Vector_base" }
%"struct.std::_Vector_base" = type { %"struct.std::_Vector_base<CVertexO, std::allocator<CVertexO>>::_Vector_impl" }
%"struct.std::_Vector_base<CVertexO, std::allocator<CVertexO>>::_Vector_impl" = type { %"struct.std::_Vector_base<CVertexO, std::allocator<CVertexO>>::_Vector_impl_data" }
%"struct.std::_Vector_base<CVertexO, std::allocator<CVertexO>>::_Vector_impl_data" = type { ptr, ptr, ptr }
%"class.std::vector.9" = type { %"struct.std::_Vector_base.10" }
%"struct.std::_Vector_base.10" = type { %"struct.std::_Vector_base<vcg::Color4<unsigned char>, std::allocator<vcg::Color4<unsigned char>>>::_Vector_impl" }
%"struct.std::_Vector_base<vcg::Color4<unsigned char>, std::allocator<vcg::Color4<unsigned char>>>::_Vector_impl" = type { %"struct.std::_Vector_base<vcg::Color4<unsigned char>, std::allocator<vcg::Color4<unsigned char>>>::_Vector_impl_data" }
%"struct.std::_Vector_base<vcg::Color4<unsigned char>, std::allocator<vcg::Color4<unsigned char>>>::_Vector_impl_data" = type { ptr, ptr, ptr }
%"class.std::vector.14" = type { %"struct.std::_Vector_base.15" }
%"struct.std::_Vector_base.15" = type { %"struct.std::_Vector_base<vcg::Point2<float>, std::allocator<vcg::Point2<float>>>::_Vector_impl" }
%"struct.std::_Vector_base<vcg::Point2<float>, std::allocator<vcg::Point2<float>>>::_Vector_impl" = type { %"struct.std::_Vector_base<vcg::Point2<float>, std::allocator<vcg::Point2<float>>>::_Vector_impl_data" }
%"struct.std::_Vector_base<vcg::Point2<float>, std::allocator<vcg::Point2<float>>>::_Vector_impl_data" = type { ptr, ptr, ptr }
%"class.std::vector.19" = type { %"struct.std::_Vector_base.20" }
%"struct.std::_Vector_base.20" = type { %"struct.std::_Vector_base<vcg::vertex::CurvatureDirTypeOcf<float>, std::allocator<vcg::vertex::CurvatureDirTypeOcf<float>>>::_Vector_impl" }
%"struct.std::_Vector_base<vcg::vertex::CurvatureDirTypeOcf<float>, std::allocator<vcg::vertex::CurvatureDirTypeOcf<float>>>::_Vector_impl" = type { %"struct.std::_Vector_base<vcg::vertex::CurvatureDirTypeOcf<float>, std::allocator<vcg::vertex::CurvatureDirTypeOcf<float>>>::_Vector_impl_data" }
%"struct.std::_Vector_base<vcg::vertex::CurvatureDirTypeOcf<float>, std::allocator<vcg::vertex::CurvatureDirTypeOcf<float>>>::_Vector_impl_data" = type { ptr, ptr, ptr }
%"class.std::vector.24" = type { %"struct.std::_Vector_base.25" }
%"struct.std::_Vector_base.25" = type { %"struct.std::_Vector_base<int, std::allocator<int>>::_Vector_impl" }
%"struct.std::_Vector_base<int, std::allocator<int>>::_Vector_impl" = type { %"struct.std::_Vector_base<int, std::allocator<int>>::_Vector_impl_data" }
%"struct.std::_Vector_base<int, std::allocator<int>>::_Vector_impl_data" = type { ptr, ptr, ptr }
%"class.std::vector.29" = type { %"struct.std::_Vector_base.30" }
%"struct.std::_Vector_base.30" = type { %"struct.std::_Vector_base<vcg::Point3<float>, std::allocator<vcg::Point3<float>>>::_Vector_impl" }
%"struct.std::_Vector_base<vcg::Point3<float>, std::allocator<vcg::Point3<float>>>::_Vector_impl" = type { %"struct.std::_Vector_base<vcg::Point3<float>, std::allocator<vcg::Point3<float>>>::_Vector_impl_data" }
%"struct.std::_Vector_base<vcg::Point3<float>, std::allocator<vcg::Point3<float>>>::_Vector_impl_data" = type { ptr, ptr, ptr }
%"class.std::vector.34" = type { %"struct.std::_Vector_base.35" }
%"struct.std::_Vector_base.35" = type { %"struct.std::_Vector_base<float, std::allocator<float>>::_Vector_impl" }
%"struct.std::_Vector_base<float, std::allocator<float>>::_Vector_impl" = type { %"struct.std::_Vector_base<float, std::allocator<float>>::_Vector_impl_data" }
%"struct.std::_Vector_base<float, std::allocator<float>>::_Vector_impl_data" = type { ptr, ptr, ptr }
%"class.std::vector.39" = type { %"struct.std::_Vector_base.40" }
%"struct.std::_Vector_base.40" = type { %"struct.std::_Vector_base<vcg::TexCoord2<>, std::allocator<vcg::TexCoord2<>>>::_Vector_impl" }
%"struct.std::_Vector_base<vcg::TexCoord2<>, std::allocator<vcg::TexCoord2<>>>::_Vector_impl" = type { %"struct.std::_Vector_base<vcg::TexCoord2<>, std::allocator<vcg::TexCoord2<>>>::_Vector_impl_data" }
%"struct.std::_Vector_base<vcg::TexCoord2<>, std::allocator<vcg::TexCoord2<>>>::_Vector_impl_data" = type { ptr, ptr, ptr }
%"class.std::vector.44" = type { %"struct.std::_Vector_base.45" }
%"struct.std::_Vector_base.45" = type { %"struct.std::_Vector_base<vcg::vertex::vector_ocf<CVertexO>::VFAdjType, std::allocator<vcg::vertex::vector_ocf<CVertexO>::VFAdjType>>::_Vector_impl" }
%"struct.std::_Vector_base<vcg::vertex::vector_ocf<CVertexO>::VFAdjType, std::allocator<vcg::vertex::vector_ocf<CVertexO>::VFAdjType>>::_Vector_impl" = type { %"struct.std::_Vector_base<vcg::vertex::vector_ocf<CVertexO>::VFAdjType, std::allocator<vcg::vertex::vector_ocf<CVertexO>::VFAdjType>>::_Vector_impl_data" }
%"struct.std::_Vector_base<vcg::vertex::vector_ocf<CVertexO>::VFAdjType, std::allocator<vcg::vertex::vector_ocf<CVertexO>::VFAdjType>>::_Vector_impl_data" = type { ptr, ptr, ptr }
%"class.std::vector.49" = type { %"struct.std::_Vector_base.50" }
%"struct.std::_Vector_base.50" = type { %"struct.std::_Vector_base<CEdgeO, std::allocator<CEdgeO>>::_Vector_impl" }
%"struct.std::_Vector_base<CEdgeO, std::allocator<CEdgeO>>::_Vector_impl" = type { %"struct.std::_Vector_base<CEdgeO, std::allocator<CEdgeO>>::_Vector_impl_data" }
%"struct.std::_Vector_base<CEdgeO, std::allocator<CEdgeO>>::_Vector_impl_data" = type { ptr, ptr, ptr }
%"class.vcg::face::vector_ocf" = type <{ %"class.std::vector.54", %"class.std::vector.9", %"class.std::vector.59", %"class.std::vector.24", %"class.std::vector.29", %"class.std::vector.34", %"class.std::vector.64", %"class.std::vector.69", %"class.std::vector.74", %"class.std::vector.79", %"class.std::vector.79", i8, i8, i8, i8, i8, i8, i8, i8, i8, i8, [6 x i8] }>
%"class.std::vector.54" = type { %"struct.std::_Vector_base.55" }
%"struct.std::_Vector_base.55" = type { %"struct.std::_Vector_base<CFaceO, std::allocator<CFaceO>>::_Vector_impl" }
%"struct.std::_Vector_base<CFaceO, std::allocator<CFaceO>>::_Vector_impl" = type { %"struct.std::_Vector_base<CFaceO, std::allocator<CFaceO>>::_Vector_impl_data" }
%"struct.std::_Vector_base<CFaceO, std::allocator<CFaceO>>::_Vector_impl_data" = type { ptr, ptr, ptr }
%"class.std::vector.59" = type { %"struct.std::_Vector_base.60" }
%"struct.std::_Vector_base.60" = type { %"struct.std::_Vector_base<vcg::face::CurvatureDirOcfBaseType<float>, std::allocator<vcg::face::CurvatureDirOcfBaseType<float>>>::_Vector_impl" }
%"struct.std::_Vector_base<vcg::face::CurvatureDirOcfBaseType<float>, std::allocator<vcg::face::CurvatureDirOcfBaseType<float>>>::_Vector_impl" = type { %"struct.std::_Vector_base<vcg::face::CurvatureDirOcfBaseType<float>, std::allocator<vcg::face::CurvatureDirOcfBaseType<float>>>::_Vector_impl_data" }
%"struct.std::_Vector_base<vcg::face::CurvatureDirOcfBaseType<float>, std::allocator<vcg::face::CurvatureDirOcfBaseType<float>>>::_Vector_impl_data" = type { ptr, ptr, ptr }
%"class.std::vector.64" = type { %"struct.std::_Vector_base.65" }
%"struct.std::_Vector_base.65" = type { %"struct.std::_Vector_base<vcg::face::vector_ocf<CFaceO>::WedgeColorTypePack, std::allocator<vcg::face::vector_ocf<CFaceO>::WedgeColorTypePack>>::_Vector_impl" }
%"struct.std::_Vector_base<vcg::face::vector_ocf<CFaceO>::WedgeColorTypePack, std::allocator<vcg::face::vector_ocf<CFaceO>::WedgeColorTypePack>>::_Vector_impl" = type { %"struct.std::_Vector_base<vcg::face::vector_ocf<CFaceO>::WedgeColorTypePack, std::allocator<vcg::face::vector_ocf<CFaceO>::WedgeColorTypePack>>::_Vector_impl_data" }
%"struct.std::_Vector_base<vcg::face::vector_ocf<CFaceO>::WedgeColorTypePack, std::allocator<vcg::face::vector_ocf<CFaceO>::WedgeColorTypePack>>::_Vector_impl_data" = type { ptr, ptr, ptr }
%"class.std::vector.69" = type { %"struct.std::_Vector_base.70" }
%"struct.std::_Vector_base.70" = type { %"struct.std::_Vector_base<vcg::face::vector_ocf<CFaceO>::WedgeNormalTypePack, std::allocator<vcg::face::vector_ocf<CFaceO>::WedgeNormalTypePack>>::_Vector_impl" }
%"struct.std::_Vector_base<vcg::face::vector_ocf<CFaceO>::WedgeNormalTypePack, std::allocator<vcg::face::vector_ocf<CFaceO>::WedgeNormalTypePack>>::_Vector_impl" = type { %"struct.std::_Vector_base<vcg::face::vector_ocf<CFaceO>::WedgeNormalTypePack, std::allocator<vcg::face::vector_ocf<CFaceO>::WedgeNormalTypePack>>::_Vector_impl_data" }
%"struct.std::_Vector_base<vcg::face::vector_ocf<CFaceO>::WedgeNormalTypePack, std::allocator<vcg::face::vector_ocf<CFaceO>::WedgeNormalTypePack>>::_Vector_impl_data" = type { ptr, ptr, ptr }
%"class.std::vector.74" = type { %"struct.std::_Vector_base.75" }
%"struct.std::_Vector_base.75" = type { %"struct.std::_Vector_base<vcg::face::vector_ocf<CFaceO>::WedgeTexTypePack, std::allocator<vcg::face::vector_ocf<CFaceO>::WedgeTexTypePack>>::_Vector_impl" }
%"struct.std::_Vector_base<vcg::face::vector_ocf<CFaceO>::WedgeTexTypePack, std::allocator<vcg::face::vector_ocf<CFaceO>::WedgeTexTypePack>>::_Vector_impl" = type { %"struct.std::_Vector_base<vcg::face::vector_ocf<CFaceO>::WedgeTexTypePack, std::allocator<vcg::face::vector_ocf<CFaceO>::WedgeTexTypePack>>::_Vector_impl_data" }
%"struct.std::_Vector_base<vcg::face::vector_ocf<CFaceO>::WedgeTexTypePack, std::allocator<vcg::face::vector_ocf<CFaceO>::WedgeTexTypePack>>::_Vector_impl_data" = type { ptr, ptr, ptr }
%"class.std::vector.79" = type { %"struct.std::_Vector_base.80" }
%"struct.std::_Vector_base.80" = type { %"struct.std::_Vector_base<vcg::face::vector_ocf<CFaceO>::AdjTypePack, std::allocator<vcg::face::vector_ocf<CFaceO>::AdjTypePack>>::_Vector_impl" }
%"struct.std::_Vector_base<vcg::face::vector_ocf<CFaceO>::AdjTypePack, std::allocator<vcg::face::vector_ocf<CFaceO>::AdjTypePack>>::_Vector_impl" = type { %"struct.std::_Vector_base<vcg::face::vector_ocf<CFaceO>::AdjTypePack, std::allocator<vcg::face::vector_ocf<CFaceO>::AdjTypePack>>::_Vector_impl_data" }
%"struct.std::_Vector_base<vcg::face::vector_ocf<CFaceO>::AdjTypePack, std::allocator<vcg::face::vector_ocf<CFaceO>::AdjTypePack>>::_Vector_impl_data" = type { ptr, ptr, ptr }
%"class.std::vector.84" = type { %"struct.std::_Vector_base.85" }
%"struct.std::_Vector_base.85" = type { %"struct.std::_Vector_base<vcg::HEdge<vcg::UsedTypes<vcg::Use<CVertexO>::AsVertexType, vcg::Use<CEdgeO>::AsEdgeType, vcg::Use<CFaceO>::AsFaceType>>, std::allocator<vcg::HEdge<vcg::UsedTypes<vcg::Use<CVertexO>::AsVertexType, vcg::Use<CEdgeO>::AsEdgeType, vcg::Use<CFaceO>::AsFaceType>>>>::_Vector_impl" }
%"struct.std::_Vector_base<vcg::HEdge<vcg::UsedTypes<vcg::Use<CVertexO>::AsVertexType, vcg::Use<CEdgeO>::AsEdgeType, vcg::Use<CFaceO>::AsFaceType>>, std::allocator<vcg::HEdge<vcg::UsedTypes<vcg::Use<CVertexO>::AsVertexType, vcg::Use<CEdgeO>::AsEdgeType, vcg::Use<CFaceO>::AsFaceType>>>>::_Vector_impl" = type { %"struct.std::_Vector_base<vcg::HEdge<vcg::UsedTypes<vcg::Use<CVertexO>::AsVertexType, vcg::Use<CEdgeO>::AsEdgeType, vcg::Use<CFaceO>::AsFaceType>>, std::allocator<vcg::HEdge<vcg::UsedTypes<vcg::Use<CVertexO>::AsVertexType, vcg::Use<CEdgeO>::AsEdgeType, vcg::Use<CFaceO>::AsFaceType>>>>::_Vector_impl_data" }
%"struct.std::_Vector_base<vcg::HEdge<vcg::UsedTypes<vcg::Use<CVertexO>::AsVertexType, vcg::Use<CEdgeO>::AsEdgeType, vcg::Use<CFaceO>::AsFaceType>>, std::allocator<vcg::HEdge<vcg::UsedTypes<vcg::Use<CVertexO>::AsVertexType, vcg::Use<CEdgeO>::AsEdgeType, vcg::Use<CFaceO>::AsFaceType>>>>::_Vector_impl_data" = type { ptr, ptr, ptr }
%"class.std::vector.89" = type { %"struct.std::_Vector_base.90" }
%"struct.std::_Vector_base.90" = type { %"struct.std::_Vector_base<vcg::TetraSimp<vcg::UsedTypes<vcg::Use<CVertexO>::AsVertexType, vcg::Use<CEdgeO>::AsEdgeType, vcg::Use<CFaceO>::AsFaceType>>, std::allocator<vcg::TetraSimp<vcg::UsedTypes<vcg::Use<CVertexO>::AsVertexType, vcg::Use<CEdgeO>::AsEdgeType, vcg::Use<CFaceO>::AsFaceType>>>>::_Vector_impl" }
%"struct.std::_Vector_base<vcg::TetraSimp<vcg::UsedTypes<vcg::Use<CVertexO>::AsVertexType, vcg::Use<CEdgeO>::AsEdgeType, vcg::Use<CFaceO>::AsFaceType>>, std::allocator<vcg::TetraSimp<vcg::UsedTypes<vcg::Use<CVertexO>::AsVertexType, vcg::Use<CEdgeO>::AsEdgeType, vcg::Use<CFaceO>::AsFaceType>>>>::_Vector_impl" = type { %"struct.std::_Vector_base<vcg::TetraSimp<vcg::UsedTypes<vcg::Use<CVertexO>::AsVertexType, vcg::Use<CEdgeO>::AsEdgeType, vcg::Use<CFaceO>::AsFaceType>>, std::allocator<vcg::TetraSimp<vcg::UsedTypes<vcg::Use<CVertexO>::AsVertexType, vcg::Use<CEdgeO>::AsEdgeType, vcg::Use<CFaceO>::AsFaceType>>>>::_Vector_impl_data" }
%"struct.std::_Vector_base<vcg::TetraSimp<vcg::UsedTypes<vcg::Use<CVertexO>::AsVertexType, vcg::Use<CEdgeO>::AsEdgeType, vcg::Use<CFaceO>::AsFaceType>>, std::allocator<vcg::TetraSimp<vcg::UsedTypes<vcg::Use<CVertexO>::AsVertexType, vcg::Use<CEdgeO>::AsEdgeType, vcg::Use<CFaceO>::AsFaceType>>>>::_Vector_impl_data" = type { ptr, ptr, ptr }
%"class.vcg::Box3" = type { %"class.vcg::Point3", %"class.vcg::Point3" }
%"class.vcg::Point3" = type { [3 x float] }
%"class.std::vector.94" = type { %"struct.std::_Vector_base.95" }
%"struct.std::_Vector_base.95" = type { %"struct.std::_Vector_base<std::__cxx11::basic_string<char>, std::allocator<std::__cxx11::basic_string<char>>>::_Vector_impl" }
%"struct.std::_Vector_base<std::__cxx11::basic_string<char>, std::allocator<std::__cxx11::basic_string<char>>>::_Vector_impl" = type { %"struct.std::_Vector_base<std::__cxx11::basic_string<char>, std::allocator<std::__cxx11::basic_string<char>>>::_Vector_impl_data" }
%"struct.std::_Vector_base<std::__cxx11::basic_string<char>, std::allocator<std::__cxx11::basic_string<char>>>::_Vector_impl_data" = type { ptr, ptr, ptr }
%"class.std::set" = type { %"class.std::_Rb_tree" }
%"class.std::_Rb_tree" = type { %"struct.std::_Rb_tree<vcg::PointerToAttribute, vcg::PointerToAttribute, std::_Identity<vcg::PointerToAttribute>, std::less<vcg::PointerToAttribute>>::_Rb_tree_impl" }
%"struct.std::_Rb_tree<vcg::PointerToAttribute, vcg::PointerToAttribute, std::_Identity<vcg::PointerToAttribute>, std::less<vcg::PointerToAttribute>>::_Rb_tree_impl" = type { %"struct.std::_Rb_tree_key_compare", %"struct.std::_Rb_tree_header" }
%"struct.std::_Rb_tree_key_compare" = type { %"struct.std::less" }
%"struct.std::less" = type { i8 }
%"struct.std::_Rb_tree_header" = type { %"struct.std::_Rb_tree_node_base", i64 }
%"struct.std::_Rb_tree_node_base" = type { i32, ptr, ptr, ptr }
%"class.vcg::Shot" = type { %"class.vcg::Camera", %"class.vcg::Shot<float>::ReferenceFrame" }
%"class.vcg::Camera" = type { float, %"class.vcg::Point2", %"class.vcg::Point2.102", %"class.vcg::Point2.102", %"class.vcg::Point2.102", %"struct.std::array", i32 }
%"class.vcg::Point2" = type { [2 x i32] }
%"class.vcg::Point2.102" = type { [2 x float] }
%"struct.std::array" = type { [4 x float] }
%"class.vcg::Shot<float>::ReferenceFrame" = type { %"class.vcg::Matrix44", %"class.vcg::Point3" }
%"class.vcg::Color4" = type { %"class.vcg::Point4" }
%"class.vcg::Point4" = type { [4 x i8] }
%"class.vcg::tri::TriMesh" = type <{ ptr, %"class.vcg::vertex::vector_ocf", i32, [4 x i8], %"class.std::vector.49", i32, [4 x i8], %"class.vcg::face::vector_ocf", i32, [4 x i8], %"class.std::vector.84", i32, [4 x i8], %"class.std::vector.89", i32, %"class.vcg::Box3", [4 x i8], %"class.std::vector.94", %"class.std::vector.94", i32, [4 x i8], %"class.std::set", %"class.std::set", %"class.std::set", %"class.std::set", %"class.std::set", %"class.vcg::Shot", %"class.vcg::Color4", i32, [4 x i8] }>

@_ZTV6CMeshO = unnamed_addr constant { [4 x ptr] } { [4 x ptr] [ptr null, ptr @_ZTI6CMeshO, ptr @_ZN6CMeshOD1Ev, ptr @_ZN6CMeshOD0Ev] }, align 8

; Function Attrs: mustprogress nounwind uwtable
define linkonce_odr void @_ZN3vcg8Matrix44IfED2Ev(ptr noundef nonnull align 4 dereferenceable(64) %0) unnamed_addr #0 comdat align 2 {
  %2 = alloca ptr, align 8
  store ptr %0, ptr %2, align 8
  ret void
}

; Function Attrs: mustprogress uwtable
define void @_ZN6CMeshOC2ERKS_(ptr noundef nonnull align 8 dereferenceable(1196) %0, ptr noundef nonnull align 8 dereferenceable(1196) %1) unnamed_addr #5 align 2 personality ptr @__gxx_personality_v0 {
  %3 = alloca ptr, align 8
  %4 = alloca ptr, align 8
  %5 = alloca ptr, align 8
  %6 = alloca i32, align 4
  store ptr %0, ptr %3, align 8
  store ptr %1, ptr %4, align 8
  %7 = load ptr, ptr %3, align 8
  call void @_ZN3vcg3tri7TriMeshINS_6vertex10vector_ocfI8CVertexOEENS_4face10vector_ocfI6CFaceOEENS0_14DummyContainerESA_SA_EC2Ev(ptr noundef nonnull align 8 dereferenceable(1116) %7)
  store ptr getelementptr inbounds ({ [4 x ptr] }, ptr @_ZTV6CMeshO, i32 0, i32 0, i32 2), ptr %7, align 8
  %8 = getelementptr inbounds %class.CMeshO, ptr %7, i32 0, i32 1
  %9 = load ptr, ptr %4, align 8
  %10 = getelementptr inbounds %class.CMeshO, ptr %9, i32 0, i32 1
  %11 = load i32, ptr %10, align 4
  store i32 %11, ptr %8, align 4
  %12 = getelementptr inbounds %class.CMeshO, ptr %7, i32 0, i32 2
  %13 = load ptr, ptr %4, align 8
  %14 = getelementptr inbounds %class.CMeshO, ptr %13, i32 0, i32 2
  %15 = load i32, ptr %14, align 8
  store i32 %15, ptr %12, align 8
  %16 = getelementptr inbounds %class.CMeshO, ptr %7, i32 0, i32 3
  %17 = load ptr, ptr %4, align 8
  %18 = getelementptr inbounds %class.CMeshO, ptr %17, i32 0, i32 3
  %19 = load i32, ptr %18, align 4
  store i32 %19, ptr %16, align 4
  %20 = getelementptr inbounds %class.CMeshO, ptr %7, i32 0, i32 4
  %21 = load ptr, ptr %4, align 8
  %22 = getelementptr inbounds %class.CMeshO, ptr %21, i32 0, i32 4
  %23 = load i32, ptr %22, align 8
  store i32 %23, ptr %20, align 8
  %24 = getelementptr inbounds %class.CMeshO, ptr %7, i32 0, i32 5
  %25 = load ptr, ptr %4, align 8
  %26 = getelementptr inbounds %class.CMeshO, ptr %25, i32 0, i32 5
  call void @llvm.memcpy.p0.p0.i64(ptr align 4 %24, ptr align 4 %26, i64 64, i1 false)
  %27 = load ptr, ptr %4, align 8
  invoke void @_ZN6CMeshO29enableComponentsFromOtherMeshERKS_(ptr noundef nonnull align 8 dereferenceable(1196) %7, ptr noundef nonnull align 8 dereferenceable(1196) %27)
          to label %28 unwind label %45

28:                                               ; preds = %2
  %29 = load ptr, ptr %4, align 8
  invoke void @_ZN3vcg3tri6AppendINS0_7TriMeshINS_6vertex10vector_ocfI8CVertexOEENS_4face10vector_ocfI6CFaceOEENS0_14DummyContainerESB_SB_EESC_E15MeshAppendConstERSC_RKSC_bb(ptr noundef nonnull align 8 dereferenceable(1116) %7, ptr noundef nonnull align 8 dereferenceable(1116) %29, i1 noundef zeroext false, i1 noundef zeroext false)
          to label %30 unwind label %45

30:                                               ; preds = %28
  %31 = load ptr, ptr %4, align 8
  %32 = getelementptr inbounds %"class.vcg::tri::TriMesh", ptr %31, i32 0, i32 17
  %33 = getelementptr inbounds %"class.vcg::tri::TriMesh", ptr %7, i32 0, i32 17
  %34 = invoke noundef nonnull align 8 dereferenceable(24) ptr @_ZNSt6vectorINSt7__cxx1112basic_stringIcSt11char_traitsIcESaIcEEESaIS5_EEaSERKS7_(ptr noundef nonnull align 8 dereferenceable(24) %33, ptr noundef nonnull align 8 dereferenceable(24) %32)
          to label %35 unwind label %45

35:                                               ; preds = %30
  %36 = load ptr, ptr %4, align 8
  %37 = getelementptr inbounds %"class.vcg::tri::TriMesh", ptr %36, i32 0, i32 18
  %38 = getelementptr inbounds %"class.vcg::tri::TriMesh", ptr %7, i32 0, i32 18
  %39 = invoke noundef nonnull align 8 dereferenceable(24) ptr @_ZNSt6vectorINSt7__cxx1112basic_stringIcSt11char_traitsIcESaIcEEESaIS5_EEaSERKS7_(ptr noundef nonnull align 8 dereferenceable(24) %38, ptr noundef nonnull align 8 dereferenceable(24) %37)
          to label %40 unwind label %45

40:                                               ; preds = %35
  %41 = load ptr, ptr %4, align 8
  %42 = getelementptr inbounds %"class.vcg::tri::TriMesh", ptr %41, i32 0, i32 28
  %43 = load i32, ptr %42, align 8
  %44 = getelementptr inbounds %"class.vcg::tri::TriMesh", ptr %7, i32 0, i32 28
  store i32 %43, ptr %44, align 8
  ret void

45:                                               ; preds = %35, %30, %28, %2
  %46 = landingpad { ptr, i32 }
          cleanup
  %47 = extractvalue { ptr, i32 } %46, 0
  store ptr %47, ptr %5, align 8
  %48 = extractvalue { ptr, i32 } %46, 1
  store i32 %48, ptr %6, align 4
  call void @_ZN3vcg8Matrix44IfED2Ev(ptr noundef nonnull align 4 dereferenceable(64) %24) #4
  call void @_ZN3vcg3tri7TriMeshINS_6vertex10vector_ocfI8CVertexOEENS_4face10vector_ocfI6CFaceOEENS0_14DummyContainerESA_SA_ED2Ev(ptr noundef nonnull align 8 dereferenceable(1116) %7) #4
  br label %49

49:                                               ; preds = %45
  %50 = load ptr, ptr %5, align 8
  %51 = load i32, ptr %6, align 4
  %52 = insertvalue { ptr, i32 } poison, ptr %50, 0
  %53 = insertvalue { ptr, i32 } %52, i32 %51, 1
  resume { ptr, i32 } %53
}