; Function Attrs: mustprogress uwtable
define void @_ZN6CMeshOC2ERKS_(ptr noundef nonnull align 8 dereferenceable(1196) %0, ptr noundef nonnull align 8 dereferenceable(1196) %1) unnamed_addr #4 align 2 personality ptr @__gxx_personality_v0 {
  tail call void @_ZN3vcg3tri7TriMeshINS_6vertex10vector_ocfI8CVertexOEENS_4face10vector_ocfI6CFaceOEENS0_14DummyContainerESA_SA_EC2Ev(ptr noundef nonnull align 8 dereferenceable(1116) %0)
  store ptr getelementptr inbounds ({ [4 x ptr] }, ptr @_ZTV6CMeshO, i64 0, i32 0, i64 2), ptr %0, align 8
  %3 = getelementptr inbounds i8, ptr %0, i64 1116
  %4 = getelementptr inbounds i8, ptr %1, i64 1116
  %5 = load i32, ptr %4, align 4
  store i32 %5, ptr %3, align 4
  %6 = getelementptr inbounds i8, ptr %0, i64 1120
  %7 = getelementptr inbounds i8, ptr %1, i64 1120
  %8 = load i32, ptr %7, align 8
  store i32 %8, ptr %6, align 8
  %9 = getelementptr inbounds i8, ptr %0, i64 1124
  %10 = getelementptr inbounds i8, ptr %1, i64 1124
  %11 = load i32, ptr %10, align 4
  store i32 %11, ptr %9, align 4
  %12 = getelementptr inbounds i8, ptr %0, i64 1128
  %13 = getelementptr inbounds i8, ptr %1, i64 1128
  %14 = load i32, ptr %13, align 8
  store i32 %14, ptr %12, align 8
  %15 = getelementptr inbounds i8, ptr %0, i64 1132
  %16 = getelementptr inbounds i8, ptr %1, i64 1132
  tail call void @llvm.memcpy.p0.p0.i64(ptr noundef nonnull align 4 dereferenceable(64) %15, ptr noundef nonnull align 4 dereferenceable(64) %16, i64 64, i1 false)
  invoke void @_ZN6CMeshO29enableComponentsFromOtherMeshERKS_(ptr noundef nonnull align 8 dereferenceable(1196) %0, ptr noundef nonnull align 8 dereferenceable(1196) %1)
          to label %17 unwind label %30

17:                                               ; preds = %2
  invoke void @_ZN3vcg3tri6AppendINS0_7TriMeshINS_6vertex10vector_ocfI8CVertexOEENS_4face10vector_ocfI6CFaceOEENS0_14DummyContainerESB_SB_EESC_E15MeshAppendConstERSC_RKSC_bb(ptr noundef nonnull align 8 dereferenceable(1116) %0, ptr noundef nonnull align 8 dereferenceable(1116) %1, i1 noundef zeroext false, i1 noundef zeroext false)
          to label %18 unwind label %30

18:                                               ; preds = %17
  %19 = getelementptr inbounds i8, ptr %1, i64 680
  %20 = getelementptr inbounds i8, ptr %0, i64 680
  %21 = invoke noundef nonnull align 8 dereferenceable(24) ptr @_ZNSt6vectorINSt7__cxx1112basic_stringIcSt11char_traitsIcESaIcEEESaIS5_EEaSERKS7_(ptr noundef nonnull align 8 dereferenceable(24) %20, ptr noundef nonnull align 8 dereferenceable(24) %19)
          to label %22 unwind label %30

22:                                               ; preds = %18
  %23 = getelementptr inbounds i8, ptr %1, i64 704
  %24 = getelementptr inbounds i8, ptr %0, i64 704
  %25 = invoke noundef nonnull align 8 dereferenceable(24) ptr @_ZNSt6vectorINSt7__cxx1112basic_stringIcSt11char_traitsIcESaIcEEESaIS5_EEaSERKS7_(ptr noundef nonnull align 8 dereferenceable(24) %24, ptr noundef nonnull align 8 dereferenceable(24) %23)
          to label %26 unwind label %30

26:                                               ; preds = %22
  %27 = getelementptr inbounds i8, ptr %1, i64 1112
  %28 = load i32, ptr %27, align 8
  %29 = getelementptr inbounds i8, ptr %0, i64 1112
  store i32 %28, ptr %29, align 8
  ret void

30:                                               ; preds = %22, %18, %17, %2
  %31 = landingpad { ptr, i32 }
          cleanup
  tail call void @_ZN3vcg3tri7TriMeshINS_6vertex10vector_ocfI8CVertexOEENS_4face10vector_ocfI6CFaceOEENS0_14DummyContainerESA_SA_ED2Ev(ptr noundef nonnull align 8 dereferenceable(1116) %0) #20
  resume { ptr, i32 } %31
}